; Function Attrs: mustprogress nofree norecurse nosync nounwind willreturn memory(read, argmem: readwrite, inaccessiblemem: none) uwtable
define hidden noundef zeroext i1 @_ZN7nanogui6Window16mouse_drag_eventERKNS_5ArrayIiLm2EEES4_ii(ptr nocapture noundef nonnull align 8 dereferenceable(186) %0, ptr nocapture nonnull readnone align 4 %1, ptr nocapture noundef nonnull readonly align 4 dereferenceable(8) %2, i32 noundef %3, i32 %4) unnamed_addr #7 align 2 {
  %6 = getelementptr inbounds i8, ptr %0, i64 185
  %7 = load i8, ptr %6, align 1
  %8 = and i8 %7, 1
  %.not = icmp ne i8 %8, 0
  %9 = and i32 %3, 1
  %.not4 = icmp ne i32 %9, 0
  %or.cond.not = and i1 %.not4, %.not
  br i1 %or.cond.not, label %_ZN7nanogui5ArrayIiLm2EEpLERKS1_.exit.critedge, label %30

_ZN7nanogui5ArrayIiLm2EEpLERKS1_.exit.critedge:   ; preds = %5
  %10 = getelementptr inbounds i8, ptr %0, i64 40
  %11 = load i32, ptr %2, align 4
  %12 = load i32, ptr %10, align 8
  %13 = getelementptr inbounds i8, ptr %2, i64 4
  %14 = getelementptr inbounds i8, ptr %0, i64 44
  %15 = load i32, ptr %14, align 4
  %16 = getelementptr inbounds i8, ptr %0, i64 16
  %17 = load ptr, ptr %16, align 8
  %18 = getelementptr inbounds i8, ptr %17, i64 48
  %19 = getelementptr inbounds i8, ptr %0, i64 48
  %20 = add nsw i32 %12, %11
  store i32 %20, ptr %10, align 8
  %21 = load i32, ptr %13, align 4
  %22 = add nsw i32 %15, %21
  %23 = insertelement <2 x i32> poison, i32 %20, i64 0
  %24 = insertelement <2 x i32> %23, i32 %22, i64 1
  %25 = tail call <2 x i32> @llvm.smax.v2i32(<2 x i32> %24, <2 x i32> zeroinitializer)
  store <2 x i32> %25, ptr %10, align 8
  %26 = load <2 x i32>, ptr %18, align 4
  %27 = load <2 x i32>, ptr %19, align 8
  %28 = sub nsw <2 x i32> %26, %27
  %29 = tail call <2 x i32> @llvm.smin.v2i32(<2 x i32> %28, <2 x i32> %25)
  store <2 x i32> %29, ptr %10, align 8
  br label %30

30:                                               ; preds = %5, %_ZN7nanogui5ArrayIiLm2EEpLERKS1_.exit.critedge
  ret i1 %or.cond.not
}